; Function Attrs: nounwind uwtable
define nonnull ptr @l___private_Lean_Meta_Tactic_Grind_EMatchTheorem_0__Lean_Meta_Grind_isGroundPattern___boxed(ptr noundef %0) local_unnamed_addr #1 {
  %2 = load ptr, ptr @l_Lean_Meta_Grind_mkGroundPattern___closed__3, align 8, !tbaa !9
  %3 = tail call ptr @l_Lean_annotation_x3f(ptr noundef %2, ptr noundef %0) #9
  %4 = ptrtoint ptr %3 to i64
  %5 = and i64 %4, 1
  %.not.i5.i = icmp eq i64 %5, 0
  br i1 %.not.i5.i, label %lean_obj_tag.exit.thread.i, label %lean_obj_tag.exit.i

lean_obj_tag.exit.i:                              ; preds = %1
  %6 = and i64 %4, 8589934590
  %.not3 = icmp eq i64 %6, 0
  %7 = select i1 %.not3, i64 1, i64 3
  br label %l___private_Lean_Meta_Tactic_Grind_EMatchTheorem_0__Lean_Meta_Grind_isGroundPattern.exit

lean_obj_tag.exit.thread.i:                       ; preds = %1
  %8 = getelementptr i8, ptr %3, i64 4
  %.val.i.i = load i32, ptr %8, align 4
  %9 = icmp ult i32 %.val.i.i, 16777216
  br i1 %9, label %l___private_Lean_Meta_Tactic_Grind_EMatchTheorem_0__Lean_Meta_Grind_isGroundPattern.exit, label %.thread.i

.thread.i:                                        ; preds = %lean_obj_tag.exit.thread.i
  %10 = load i32, ptr %3, align 4, !tbaa !4
  %11 = icmp sgt i32 %10, 1
  br i1 %11, label %12, label %14, !prof !11

12:                                               ; preds = %.thread.i
  %13 = add nsw i32 %10, -1
  store i32 %13, ptr %3, align 4, !tbaa !4
  br label %l___private_Lean_Meta_Tactic_Grind_EMatchTheorem_0__Lean_Meta_Grind_isGroundPattern.exit

14:                                               ; preds = %.thread.i
  %.not.i.i = icmp eq i32 %10, 0
  br i1 %.not.i.i, label %l___private_Lean_Meta_Tactic_Grind_EMatchTheorem_0__Lean_Meta_Grind_isGroundPattern.exit, label %15

15:                                               ; preds = %14
  tail call void @lean_dec_ref_cold(ptr noundef nonnull %3) #9
  br label %l___private_Lean_Meta_Tactic_Grind_EMatchTheorem_0__Lean_Meta_Grind_isGroundPattern.exit

l___private_Lean_Meta_Tactic_Grind_EMatchTheorem_0__Lean_Meta_Grind_isGroundPattern.exit: ; preds = %lean_obj_tag.exit.i, %lean_obj_tag.exit.thread.i, %12, %14, %15
  %.0.i = phi i64 [ 1, %lean_obj_tag.exit.thread.i ], [ 3, %15 ], [ 3, %14 ], [ 3, %12 ], [ %7, %lean_obj_tag.exit.i ]
  %16 = ptrtoint ptr %0 to i64
  %17 = and i64 %16, 1
  %.not = icmp eq i64 %17, 0
  br i1 %.not, label %18, label %lean_dec.exit

18:                                               ; preds = %l___private_Lean_Meta_Tactic_Grind_EMatchTheorem_0__Lean_Meta_Grind_isGroundPattern.exit
  %19 = load i32, ptr %0, align 4, !tbaa !4
  %20 = icmp sgt i32 %19, 1
  br i1 %20, label %21, label %23, !prof !11

21:                                               ; preds = %18
  %22 = add nsw i32 %19, -1
  store i32 %22, ptr %0, align 4, !tbaa !4
  br label %lean_dec.exit

23:                                               ; preds = %18
  %.not.i = icmp eq i32 %19, 0
  br i1 %.not.i, label %lean_dec.exit, label %24

24:                                               ; preds = %23
  tail call void @lean_dec_ref_cold(ptr noundef nonnull %0) #9
  br label %lean_dec.exit

lean_dec.exit:                                    ; preds = %24, %23, %21, %l___private_Lean_Meta_Tactic_Grind_EMatchTheorem_0__Lean_Meta_Grind_isGroundPattern.exit
  %25 = inttoptr i64 %.0.i to ptr
  ret ptr %25
}